; ModuleID = '15/470.c'
source_filename = "15/470.c"
target datalayout = "e-m:e-p270:32:32-p271:32:32-p272:64:64-i64:64-f80:128-n8:16:32:64-S128"
target triple = "x86_64-pc-linux-gnu"

@.str = private unnamed_addr constant [3 x i8] c"%d\00", align 1

; Function Attrs: noinline nounwind uwtable
define dso_local i32 @main() #0 {
  %1 = alloca i32, align 4
  %2 = alloca i32, align 4
  %3 = alloca [100 x [100 x i32]], align 16
  %4 = alloca i32, align 4
  %5 = alloca i32, align 4
  %6 = alloca i32, align 4
  %7 = alloca i32, align 4
  %8 = alloca i32, align 4
  %9 = alloca i32, align 4
  %10 = alloca i32, align 4
  store i32 0, i32* %1, align 4
  %11 = call i32 (i8*, ...) @__isoc99_scanf(i8* getelementptr inbounds ([3 x i8], [3 x i8]* @.str, i64 0, i64 0), i32* %2)
  store i32 1, i32* %4, align 4
  br label %12

12:                                               ; preds = %33, %0
  %13 = load i32, i32* %4, align 4
  %14 = load i32, i32* %2, align 4
  %15 = icmp sle i32 %13, %14
  br i1 %15, label %16, label %36

16:                                               ; preds = %12
  store i32 1, i32* %5, align 4
  br label %17

17:                                               ; preds = %29, %16
  %18 = load i32, i32* %5, align 4
  %19 = load i32, i32* %2, align 4
  %20 = icmp sle i32 %18, %19
  br i1 %20, label %21, label %32

21:                                               ; preds = %17
  %22 = load i32, i32* %4, align 4
  %23 = sext i32 %22 to i64
  %24 = getelementptr inbounds [100 x [100 x i32]], [100 x [100 x i32]]* %3, i64 0, i64 %23
  %25 = load i32, i32* %5, align 4
  %26 = sext i32 %25 to i64
  %27 = getelementptr inbounds [100 x i32], [100 x i32]* %24, i64 0, i64 %26
  %28 = call i32 (i8*, ...) @__isoc99_scanf(i8* getelementptr inbounds ([3 x i8], [3 x i8]* @.str, i64 0, i64 0), i32* %27)
  br label %29

29:                                               ; preds = %21
  %30 = load i32, i32* %5, align 4
  %31 = add nsw i32 %30, 1
  store i32 %31, i32* %5, align 4
  br label %17

32:                                               ; preds = %17
  br label %33

33:                                               ; preds = %32
  %34 = load i32, i32* %4, align 4
  %35 = add nsw i32 %34, 1
  store i32 %35, i32* %4, align 4
  br label %12

36:                                               ; preds = %12
  store i32 1, i32* %4, align 4
  br label %37

37:                                               ; preds = %129, %36
  %38 = load i32, i32* %4, align 4
  %39 = load i32, i32* %2, align 4
  %40 = icmp sle i32 %38, %39
  br i1 %40, label %41, label %132

41:                                               ; preds = %37
  store i32 1, i32* %5, align 4
  br label %42

42:                                               ; preds = %125, %41
  %43 = load i32, i32* %5, align 4
  %44 = load i32, i32* %2, align 4
  %45 = icmp sle i32 %43, %44
  br i1 %45, label %46, label %128

46:                                               ; preds = %42
  %47 = load i32, i32* %4, align 4
  %48 = load i32, i32* %2, align 4
  %49 = icmp slt i32 %47, %48
  br i1 %49, label %50, label %86

50:                                               ; preds = %46
  %51 = load i32, i32* %5, align 4
  %52 = load i32, i32* %2, align 4
  %53 = icmp slt i32 %51, %52
  br i1 %53, label %54, label %86

54:                                               ; preds = %50
  %55 = load i32, i32* %4, align 4
  %56 = sext i32 %55 to i64
  %57 = getelementptr inbounds [100 x [100 x i32]], [100 x [100 x i32]]* %3, i64 0, i64 %56
  %58 = load i32, i32* %5, align 4
  %59 = sext i32 %58 to i64
  %60 = getelementptr inbounds [100 x i32], [100 x i32]* %57, i64 0, i64 %59
  %61 = load i32, i32* %60, align 4
  %62 = icmp eq i32 %61, 0
  br i1 %62, label %63, label %86

63:                                               ; preds = %54
  %64 = load i32, i32* %4, align 4
  %65 = add nsw i32 %64, 1
  %66 = sext i32 %65 to i64
  %67 = getelementptr inbounds [100 x [100 x i32]], [100 x [100 x i32]]* %3, i64 0, i64 %66
  %68 = load i32, i32* %5, align 4
  %69 = sext i32 %68 to i64
  %70 = getelementptr inbounds [100 x i32], [100 x i32]* %67, i64 0, i64 %69
  %71 = load i32, i32* %70, align 4
  %72 = icmp eq i32 %71, 0
  br i1 %72, label %73, label %86

73:                                               ; preds = %63
  %74 = load i32, i32* %4, align 4
  %75 = sext i32 %74 to i64
  %76 = getelementptr inbounds [100 x [100 x i32]], [100 x [100 x i32]]* %3, i64 0, i64 %75
  %77 = load i32, i32* %5, align 4
  %78 = add nsw i32 %77, 1
  %79 = sext i32 %78 to i64
  %80 = getelementptr inbounds [100 x i32], [100 x i32]* %76, i64 0, i64 %79
  %81 = load i32, i32* %80, align 4
  %82 = icmp eq i32 %81, 0
  br i1 %82, label %83, label %86

83:                                               ; preds = %73
  %84 = load i32, i32* %4, align 4
  store i32 %84, i32* %6, align 4
  %85 = load i32, i32* %5, align 4
  store i32 %85, i32* %7, align 4
  br label %86

86:                                               ; preds = %83, %73, %63, %54, %50, %46
  %87 = load i32, i32* %4, align 4
  %88 = icmp sgt i32 %87, 1
  br i1 %88, label %89, label %124

89:                                               ; preds = %86
  %90 = load i32, i32* %5, align 4
  %91 = icmp sgt i32 %90, 1
  br i1 %91, label %92, label %124

92:                                               ; preds = %89
  %93 = load i32, i32* %4, align 4
  %94 = sext i32 %93 to i64
  %95 = getelementptr inbounds [100 x [100 x i32]], [100 x [100 x i32]]* %3, i64 0, i64 %94
  %96 = load i32, i32* %5, align 4
  %97 = sext i32 %96 to i64
  %98 = getelementptr inbounds [100 x i32], [100 x i32]* %95, i64 0, i64 %97
  %99 = load i32, i32* %98, align 4
  %100 = icmp eq i32 %99, 0
  br i1 %100, label %101, label %124

101:                                              ; preds = %92
  %102 = load i32, i32* %4, align 4
  %103 = sub nsw i32 %102, 1
  %104 = sext i32 %103 to i64
  %105 = getelementptr inbounds [100 x [100 x i32]], [100 x [100 x i32]]* %3, i64 0, i64 %104
  %106 = load i32, i32* %5, align 4
  %107 = sext i32 %106 to i64
  %108 = getelementptr inbounds [100 x i32], [100 x i32]* %105, i64 0, i64 %107
  %109 = load i32, i32* %108, align 4
  %110 = icmp eq i32 %109, 0
  br i1 %110, label %111, label %124

111:                                              ; preds = %101
  %112 = load i32, i32* %4, align 4
  %113 = sext i32 %112 to i64
  %114 = getelementptr inbounds [100 x [100 x i32]], [100 x [100 x i32]]* %3, i64 0, i64 %113
  %115 = load i32, i32* %5, align 4
  %116 = sub nsw i32 %115, 1
  %117 = sext i32 %116 to i64
  %118 = getelementptr inbounds [100 x i32], [100 x i32]* %114, i64 0, i64 %117
  %119 = load i32, i32* %118, align 4
  %120 = icmp eq i32 %119, 0
  br i1 %120, label %121, label %124

121:                                              ; preds = %111
  %122 = load i32, i32* %4, align 4
  store i32 %122, i32* %8, align 4
  %123 = load i32, i32* %5, align 4
  store i32 %123, i32* %9, align 4
  br label %124

124:                                              ; preds = %121, %111, %101, %92, %89, %86
  br label %125

125:                                              ; preds = %124
  %126 = load i32, i32* %5, align 4
  %127 = add nsw i32 %126, 1
  store i32 %127, i32* %5, align 4
  br label %42

128:                                              ; preds = %42
  br label %129

129:                                              ; preds = %128
  %130 = load i32, i32* %4, align 4
  %131 = add nsw i32 %130, 1
  store i32 %131, i32* %4, align 4
  br label %37

132:                                              ; preds = %37
  %133 = load i32, i32* %8, align 4
  %134 = load i32, i32* %6, align 4
  %135 = sub nsw i32 %133, %134
  %136 = sub nsw i32 %135, 1
  %137 = load i32, i32* %9, align 4
  %138 = load i32, i32* %7, align 4
  %139 = sub nsw i32 %137, %138
  %140 = sub nsw i32 %139, 1
  %141 = mul nsw i32 %136, %140
  store i32 %141, i32* %10, align 4
  %142 = load i32, i32* %10, align 4
  %143 = call i32 (i8*, ...) @printf(i8* getelementptr inbounds ([3 x i8], [3 x i8]* @.str, i64 0, i64 0), i32 %142)
  ret i32 0
}

declare dso_local i32 @__isoc99_scanf(i8*, ...) #1

declare dso_local i32 @printf(i8*, ...) #1


!llvm.module.flags = !{!0}
!llvm.ident = !{!1}

!0 = !{i32 1, !"wchar_size", i32 4}
!1 = !{!"clang version 10.0.0-4ubuntu1 "}
